; ModuleID = '29/434.c'
source_filename = "29/434.c"
target datalayout = "e-m:e-p270:32:32-p271:32:32-p272:64:64-i64:64-f80:128-n8:16:32:64-S128"
target triple = "x86_64-pc-linux-gnu"

@.str = private unnamed_addr constant [3 x i8] c"%d\00", align 1
@.str.1 = private unnamed_addr constant [7 x i8] c"%.3lf\0A\00", align 1

; Function Attrs: noinline nounwind uwtable
define dso_local i32 @main() #0 {
  %1 = alloca i32, align 4
  %2 = alloca [100 x i32], align 16
  %3 = alloca [100 x i32], align 16
  %4 = alloca i32, align 4
  %5 = alloca [100 x i32], align 16
  %6 = alloca i32, align 4
  %7 = alloca i32, align 4
  %8 = alloca [100 x double], align 16
  store i32 0, i32* %1, align 4
  %9 = call i32 (i8*, ...) @__isoc99_scanf(i8* getelementptr inbounds ([3 x i8], [3 x i8]* @.str, i64 0, i64 0), i32* %4)
  store i32 0, i32* %6, align 4
  br label %10

10:                                               ; preds = %19, %0
  %11 = load i32, i32* %6, align 4
  %12 = load i32, i32* %4, align 4
  %13 = icmp slt i32 %11, %12
  br i1 %13, label %14, label %22

14:                                               ; preds = %10
  %15 = load i32, i32* %6, align 4
  %16 = sext i32 %15 to i64
  %17 = getelementptr inbounds [100 x i32], [100 x i32]* %5, i64 0, i64 %16
  %18 = call i32 (i8*, ...) @__isoc99_scanf(i8* getelementptr inbounds ([3 x i8], [3 x i8]* @.str, i64 0, i64 0), i32* %17)
  br label %19

19:                                               ; preds = %14
  %20 = load i32, i32* %6, align 4
  %21 = add nsw i32 %20, 1
  store i32 %21, i32* %6, align 4
  br label %10

22:                                               ; preds = %10
  %23 = getelementptr inbounds [100 x i32], [100 x i32]* %2, i64 0, i64 0
  store i32 2, i32* %23, align 16
  %24 = getelementptr inbounds [100 x i32], [100 x i32]* %3, i64 0, i64 0
  store i32 1, i32* %24, align 16
  %25 = getelementptr inbounds [100 x i32], [100 x i32]* %2, i64 0, i64 0
  %26 = load i32, i32* %25, align 16
  %27 = sitofp i32 %26 to double
  %28 = getelementptr inbounds [100 x i32], [100 x i32]* %3, i64 0, i64 0
  %29 = load i32, i32* %28, align 16
  %30 = sitofp i32 %29 to double
  %31 = fdiv double %27, %30
  %32 = getelementptr inbounds [100 x double], [100 x double]* %8, i64 0, i64 0
  store double %31, double* %32, align 16
  store i32 0, i32* %7, align 4
  br label %33

33:                                               ; preds = %98, %22
  %34 = load i32, i32* %7, align 4
  %35 = load i32, i32* %4, align 4
  %36 = icmp slt i32 %34, %35
  br i1 %36, label %37, label %101

37:                                               ; preds = %33
  store i32 1, i32* %6, align 4
  br label %38

38:                                               ; preds = %88, %37
  %39 = load i32, i32* %6, align 4
  %40 = load i32, i32* %7, align 4
  %41 = sext i32 %40 to i64
  %42 = getelementptr inbounds [100 x i32], [100 x i32]* %5, i64 0, i64 %41
  %43 = load i32, i32* %42, align 4
  %44 = icmp slt i32 %39, %43
  br i1 %44, label %45, label %91

45:                                               ; preds = %38
  %46 = load i32, i32* %6, align 4
  %47 = sub nsw i32 %46, 1
  %48 = sext i32 %47 to i64
  %49 = getelementptr inbounds [100 x i32], [100 x i32]* %2, i64 0, i64 %48
  %50 = load i32, i32* %49, align 4
  %51 = load i32, i32* %6, align 4
  %52 = sub nsw i32 %51, 1
  %53 = sext i32 %52 to i64
  %54 = getelementptr inbounds [100 x i32], [100 x i32]* %3, i64 0, i64 %53
  %55 = load i32, i32* %54, align 4
  %56 = add nsw i32 %50, %55
  %57 = load i32, i32* %6, align 4
  %58 = sext i32 %57 to i64
  %59 = getelementptr inbounds [100 x i32], [100 x i32]* %2, i64 0, i64 %58
  store i32 %56, i32* %59, align 4
  %60 = load i32, i32* %6, align 4
  %61 = sub nsw i32 %60, 1
  %62 = sext i32 %61 to i64
  %63 = getelementptr inbounds [100 x i32], [100 x i32]* %2, i64 0, i64 %62
  %64 = load i32, i32* %63, align 4
  %65 = load i32, i32* %6, align 4
  %66 = sext i32 %65 to i64
  %67 = getelementptr inbounds [100 x i32], [100 x i32]* %3, i64 0, i64 %66
  store i32 %64, i32* %67, align 4
  %68 = load i32, i32* %6, align 4
  %69 = sub nsw i32 %68, 1
  %70 = sext i32 %69 to i64
  %71 = getelementptr inbounds [100 x double], [100 x double]* %8, i64 0, i64 %70
  %72 = load double, double* %71, align 8
  %73 = load i32, i32* %6, align 4
  %74 = sext i32 %73 to i64
  %75 = getelementptr inbounds [100 x i32], [100 x i32]* %2, i64 0, i64 %74
  %76 = load i32, i32* %75, align 4
  %77 = sitofp i32 %76 to double
  %78 = load i32, i32* %6, align 4
  %79 = sext i32 %78 to i64
  %80 = getelementptr inbounds [100 x i32], [100 x i32]* %3, i64 0, i64 %79
  %81 = load i32, i32* %80, align 4
  %82 = sitofp i32 %81 to double
  %83 = fdiv double %77, %82
  %84 = fadd double %72, %83
  %85 = load i32, i32* %6, align 4
  %86 = sext i32 %85 to i64
  %87 = getelementptr inbounds [100 x double], [100 x double]* %8, i64 0, i64 %86
  store double %84, double* %87, align 8
  br label %88

88:                                               ; preds = %45
  %89 = load i32, i32* %6, align 4
  %90 = add nsw i32 %89, 1
  store i32 %90, i32* %6, align 4
  br label %38

91:                                               ; preds = %38
  %92 = load i32, i32* %6, align 4
  %93 = sub nsw i32 %92, 1
  %94 = sext i32 %93 to i64
  %95 = getelementptr inbounds [100 x double], [100 x double]* %8, i64 0, i64 %94
  %96 = load double, double* %95, align 8
  %97 = call i32 (i8*, ...) @printf(i8* getelementptr inbounds ([7 x i8], [7 x i8]* @.str.1, i64 0, i64 0), double %96)
  br label %98

98:                                               ; preds = %91
  %99 = load i32, i32* %7, align 4
  %100 = add nsw i32 %99, 1
  store i32 %100, i32* %7, align 4
  br label %33

101:                                              ; preds = %33
  ret i32 0
}

declare dso_local i32 @__isoc99_scanf(i8*, ...) #1

declare dso_local i32 @printf(i8*, ...) #1


!llvm.module.flags = !{!0}
!llvm.ident = !{!1}

!0 = !{i32 1, !"wchar_size", i32 4}
!1 = !{!"clang version 10.0.0-4ubuntu1 "}
